target datalayout = "e-m:e-p270:32:32-p271:32:32-p272:64:64-i64:64-i128:128-f80:128-n8:16:32:64-S128"
target triple = "x86_64-pc-linux-gnu"

%struct.Qureg = type { i32, i32, i32, i64, i64, i32, i32, %struct.ComplexArray, %struct.ComplexArray, %struct.ComplexArray, ptr, ptr, ptr, ptr, ptr, ptr }
%struct.ComplexArray = type { ptr, ptr }

@__func__.applyMultiVarPhaseFuncOverrides = private unnamed_addr constant [32 x i8] c"applyMultiVarPhaseFuncOverrides\00", align 1

; Function Attrs: nounwind uwtable
define void @applyMultiVarPhaseFuncOverrides(ptr noundef byval(%struct.Qureg) align 8 %0, ptr noundef %1, ptr noundef %2, i32 noundef %3, i32 noundef %4, ptr noundef %5, ptr noundef %6, ptr noundef %7, ptr noundef %8, ptr noundef %9, i32 noundef %10) #0 {
  %12 = alloca ptr, align 8
  %13 = alloca ptr, align 8
  %14 = alloca i32, align 4
  %15 = alloca i32, align 4
  %16 = alloca ptr, align 8
  %17 = alloca ptr, align 8
  %18 = alloca ptr, align 8
  %19 = alloca ptr, align 8
  %20 = alloca ptr, align 8
  %21 = alloca i32, align 4
  %22 = alloca i32, align 4
  store ptr %1, ptr %12, align 8, !tbaa !27
  store ptr %2, ptr %13, align 8, !tbaa !27
  store i32 %3, ptr %14, align 4, !tbaa !4
  store i32 %4, ptr %15, align 4, !tbaa !4
  store ptr %5, ptr %16, align 8, !tbaa !23
  store ptr %6, ptr %17, align 8, !tbaa !23
  store ptr %7, ptr %18, align 8, !tbaa !27
  store ptr %8, ptr %19, align 8, !tbaa !30
  store ptr %9, ptr %20, align 8, !tbaa !23
  store i32 %10, ptr %21, align 4, !tbaa !4
  %23 = load ptr, ptr %12, align 8, !tbaa !27
  %24 = load ptr, ptr %13, align 8, !tbaa !27
  %25 = load i32, ptr %14, align 4, !tbaa !4
  call void @validateQubitSubregs(ptr noundef byval(%struct.Qureg) align 8 %0, ptr noundef %23, ptr noundef %24, i32 noundef %25, ptr noundef @__func__.applyMultiVarPhaseFuncOverrides)
  %26 = load ptr, ptr %13, align 8, !tbaa !27
  %27 = load i32, ptr %14, align 4, !tbaa !4
  %28 = load i32, ptr %15, align 4, !tbaa !4
  call void @validateMultiRegBitEncoding(ptr noundef %26, i32 noundef %27, i32 noundef %28, ptr noundef @__func__.applyMultiVarPhaseFuncOverrides)
  %29 = load ptr, ptr %13, align 8, !tbaa !27
  %30 = load i32, ptr %14, align 4, !tbaa !4
  %31 = load i32, ptr %15, align 4, !tbaa !4
  %32 = load ptr, ptr %17, align 8, !tbaa !23
  %33 = load ptr, ptr %18, align 8, !tbaa !27
  call void @validateMultiVarPhaseFuncTerms(ptr noundef %29, i32 noundef %30, i32 noundef %31, ptr noundef %32, ptr noundef %33, ptr noundef @__func__.applyMultiVarPhaseFuncOverrides)
  %34 = load ptr, ptr %13, align 8, !tbaa !27
  %35 = load i32, ptr %14, align 4, !tbaa !4
  %36 = load i32, ptr %15, align 4, !tbaa !4
  %37 = load ptr, ptr %19, align 8, !tbaa !30
  %38 = load i32, ptr %21, align 4, !tbaa !4
  call void @validateMultiVarPhaseFuncOverrides(ptr noundef %34, i32 noundef %35, i32 noundef %36, ptr noundef %37, i32 noundef %38, ptr noundef @__func__.applyMultiVarPhaseFuncOverrides)
  call void @llvm.lifetime.start.p0(i64 4, ptr %22) #7
  store i32 0, ptr %22, align 4, !tbaa !4
  %39 = load ptr, ptr %12, align 8, !tbaa !27
  %40 = load ptr, ptr %13, align 8, !tbaa !27
  %41 = load i32, ptr %14, align 4, !tbaa !4
  %42 = load i32, ptr %15, align 4, !tbaa !4
  %43 = load ptr, ptr %16, align 8, !tbaa !23
  %44 = load ptr, ptr %17, align 8, !tbaa !23
  %45 = load ptr, ptr %18, align 8, !tbaa !27
  %46 = load ptr, ptr %19, align 8, !tbaa !30
  %47 = load ptr, ptr %20, align 8, !tbaa !23
  %48 = load i32, ptr %21, align 4, !tbaa !4
  %49 = load i32, ptr %22, align 4, !tbaa !4
  call void @statevec_applyMultiVarPhaseFuncOverrides(ptr noundef byval(%struct.Qureg) align 8 %0, ptr noundef %39, ptr noundef %40, i32 noundef %41, i32 noundef %42, ptr noundef %43, ptr noundef %44, ptr noundef %45, ptr noundef %46, ptr noundef %47, i32 noundef %48, i32 noundef %49)
  %50 = getelementptr inbounds nuw %struct.Qureg, ptr %0, i32 0, i32 0
  %51 = load i32, ptr %50, align 8, !tbaa !13
  %52 = icmp ne i32 %51, 0
  br i1 %52, label %53, label %76

53:                                               ; preds = %11
  store i32 1, ptr %22, align 4, !tbaa !4
  %54 = load ptr, ptr %12, align 8, !tbaa !27
  %55 = load ptr, ptr %13, align 8, !tbaa !27
  %56 = load i32, ptr %14, align 4, !tbaa !4
  %57 = getelementptr inbounds nuw %struct.Qureg, ptr %0, i32 0, i32 1
  %58 = load i32, ptr %57, align 4, !tbaa !18
  call void @shiftSubregIndices(ptr noundef %54, ptr noundef %55, i32 noundef %56, i32 noundef %58)
  %59 = load ptr, ptr %12, align 8, !tbaa !27
  %60 = load ptr, ptr %13, align 8, !tbaa !27
  %61 = load i32, ptr %14, align 4, !tbaa !4
  %62 = load i32, ptr %15, align 4, !tbaa !4
  %63 = load ptr, ptr %16, align 8, !tbaa !23
  %64 = load ptr, ptr %17, align 8, !tbaa !23
  %65 = load ptr, ptr %18, align 8, !tbaa !27
  %66 = load ptr, ptr %19, align 8, !tbaa !30
  %67 = load ptr, ptr %20, align 8, !tbaa !23
  %68 = load i32, ptr %21, align 4, !tbaa !4
  %69 = load i32, ptr %22, align 4, !tbaa !4
  call void @statevec_applyMultiVarPhaseFuncOverrides(ptr noundef byval(%struct.Qureg) align 8 %0, ptr noundef %59, ptr noundef %60, i32 noundef %61, i32 noundef %62, ptr noundef %63, ptr noundef %64, ptr noundef %65, ptr noundef %66, ptr noundef %67, i32 noundef %68, i32 noundef %69)
  %70 = load ptr, ptr %12, align 8, !tbaa !27
  %71 = load ptr, ptr %13, align 8, !tbaa !27
  %72 = load i32, ptr %14, align 4, !tbaa !4
  %73 = getelementptr inbounds nuw %struct.Qureg, ptr %0, i32 0, i32 1
  %74 = load i32, ptr %73, align 4, !tbaa !18
  %75 = sub nsw i32 0, %74
  call void @shiftSubregIndices(ptr noundef %70, ptr noundef %71, i32 noundef %72, i32 noundef %75)
  br label %76

76:                                               ; preds = %53, %11
  %77 = load ptr, ptr %12, align 8, !tbaa !27
  %78 = load ptr, ptr %13, align 8, !tbaa !27
  %79 = load i32, ptr %14, align 4, !tbaa !4
  %80 = load i32, ptr %15, align 4, !tbaa !4
  %81 = load ptr, ptr %16, align 8, !tbaa !23
  %82 = load ptr, ptr %17, align 8, !tbaa !23
  %83 = load ptr, ptr %18, align 8, !tbaa !27
  %84 = load ptr, ptr %19, align 8, !tbaa !30
  %85 = load ptr, ptr %20, align 8, !tbaa !23
  %86 = load i32, ptr %21, align 4, !tbaa !4
  call void @qasm_recordMultiVarPhaseFunc(ptr noundef byval(%struct.Qureg) align 8 %0, ptr noundef %77, ptr noundef %78, i32 noundef %79, i32 noundef %80, ptr noundef %81, ptr noundef %82, ptr noundef %83, ptr noundef %84, ptr noundef %85, i32 noundef %86)
  call void @llvm.lifetime.end.p0(i64 4, ptr %22) #7
  ret void
}